target datalayout = "e-m:e-p270:32:32-p271:32:32-p272:64:64-i64:64-i128:128-f80:128-n8:16:32:64-S128"
target triple = "x86_64-pc-linux-gnu"

%class.G1IHOPControl = type { ptr, double, i64, double, ptr }

; Function Attrs: mustprogress nounwind uwtable
define hidden void @_ZN13G1IHOPControlC2EdPK25G1OldGenAllocationTracker(ptr noundef nonnull align 8 dereferenceable(40) %0, double noundef %1, ptr noundef %2) unnamed_addr #1 align 2 {
  %4 = alloca ptr, align 8
  %5 = alloca double, align 8
  %6 = alloca ptr, align 8
  store ptr %0, ptr %4, align 8
  store double %1, ptr %5, align 8
  store ptr %2, ptr %6, align 8
  %7 = load ptr, ptr %4, align 8
  store ptr getelementptr inbounds inrange(-16, 72) ({ [11 x ptr] }, ptr @_ZTV13G1IHOPControl, i32 0, i32 0, i32 2), ptr %7, align 8
  %8 = getelementptr inbounds %class.G1IHOPControl, ptr %7, i32 0, i32 1
  %9 = load double, ptr %5, align 8
  store double %9, ptr %8, align 8
  %10 = getelementptr inbounds %class.G1IHOPControl, ptr %7, i32 0, i32 2
  store i64 0, ptr %10, align 8
  %11 = getelementptr inbounds %class.G1IHOPControl, ptr %7, i32 0, i32 3
  store double 0.000000e+00, ptr %11, align 8
  %12 = getelementptr inbounds %class.G1IHOPControl, ptr %7, i32 0, i32 4
  %13 = load ptr, ptr %6, align 8
  store ptr %13, ptr %12, align 8
  ret void
}