; Function Attrs: mustprogress nofree norecurse nosync nounwind willreturn memory(argmem: write) uwtable
define hidden void @_ZN13G1IHOPControlC2EdPK25G1OldGenAllocationTracker(ptr nocapture noundef nonnull writeonly align 8 dereferenceable(40) %0, double noundef %1, ptr noundef %2) unnamed_addr #0 align 2 {
  store ptr getelementptr inbounds inrange(-16, 72) (i8, ptr @_ZTV13G1IHOPControl, i64 16), ptr %0, align 8
  %4 = getelementptr inbounds i8, ptr %0, i64 8
  store double %1, ptr %4, align 8
  %5 = getelementptr inbounds i8, ptr %0, i64 16
  %6 = getelementptr inbounds i8, ptr %0, i64 32
  tail call void @llvm.memset.p0.i64(ptr noundef nonnull align 8 dereferenceable(16) %5, i8 0, i64 16, i1 false)
  store ptr %2, ptr %6, align 8
  ret void
}